target datalayout = "e-m:e-p270:32:32-p271:32:32-p272:64:64-i64:64-i128:128-f80:128-n8:16:32:64-S128"
target triple = "x86_64-pc-linux-gnu"

%"struct.cv::ppf_match_3d::HSHTBL_i" = type { i64, ptr, ptr }
%"struct.cv::ppf_match_3d::hashnode_i" = type { i32, ptr, ptr }

; Function Attrs: mustprogress uwtable
define hidden noundef i32 @_ZN2cv12ppf_match_3d15hashtableRemoveEPNS0_8HSHTBL_iEj(ptr noundef %0, i32 noundef %1) #5 {
  %3 = alloca i32, align 4
  %4 = alloca ptr, align 8
  %5 = alloca i32, align 4
  %6 = alloca ptr, align 8
  %7 = alloca ptr, align 8
  %8 = alloca i64, align 8
  %9 = alloca i32, align 4
  store ptr %0, ptr %4, align 8, !tbaa !11
  store i32 %1, ptr %5, align 4, !tbaa !3
  call void @llvm.lifetime.start.p0(i64 8, ptr %6) #3
  call void @llvm.lifetime.start.p0(i64 8, ptr %7) #3
  store ptr null, ptr %7, align 8, !tbaa !19
  call void @llvm.lifetime.start.p0(i64 8, ptr %8) #3
  %10 = load ptr, ptr %4, align 8, !tbaa !11
  %11 = getelementptr inbounds nuw %"struct.cv::ppf_match_3d::HSHTBL_i", ptr %10, i32 0, i32 2
  %12 = load ptr, ptr %11, align 8, !tbaa !18
  %13 = load i32, ptr %5, align 4, !tbaa !3
  %14 = call noundef i64 %12(i32 noundef %13)
  %15 = load ptr, ptr %4, align 8, !tbaa !11
  %16 = getelementptr inbounds nuw %"struct.cv::ppf_match_3d::HSHTBL_i", ptr %15, i32 0, i32 0
  %17 = load i64, ptr %16, align 8, !tbaa !17
  %18 = urem i64 %14, %17
  store i64 %18, ptr %8, align 8, !tbaa !7
  %19 = load ptr, ptr %4, align 8, !tbaa !11
  %20 = getelementptr inbounds nuw %"struct.cv::ppf_match_3d::HSHTBL_i", ptr %19, i32 0, i32 1
  %21 = load ptr, ptr %20, align 8, !tbaa !13
  %22 = load i64, ptr %8, align 8, !tbaa !7
  %23 = getelementptr inbounds nuw ptr, ptr %21, i64 %22
  %24 = load ptr, ptr %23, align 8, !tbaa !19
  store ptr %24, ptr %6, align 8, !tbaa !19
  br label %25

25:                                               ; preds = %54, %2
  %26 = load ptr, ptr %6, align 8, !tbaa !19
  %27 = icmp ne ptr %26, null
  br i1 %27, label %28, label %59

28:                                               ; preds = %25
  %29 = load ptr, ptr %6, align 8, !tbaa !19
  %30 = getelementptr inbounds nuw %"struct.cv::ppf_match_3d::hashnode_i", ptr %29, i32 0, i32 0
  %31 = load i32, ptr %30, align 8, !tbaa !26
  %32 = load i32, ptr %5, align 4, !tbaa !3
  %33 = icmp eq i32 %31, %32
  br i1 %33, label %34, label %54

34:                                               ; preds = %28
  %35 = load ptr, ptr %7, align 8, !tbaa !19
  %36 = icmp ne ptr %35, null
  br i1 %36, label %37, label %43

37:                                               ; preds = %34
  %38 = load ptr, ptr %6, align 8, !tbaa !19
  %39 = getelementptr inbounds nuw %"struct.cv::ppf_match_3d::hashnode_i", ptr %38, i32 0, i32 2
  %40 = load ptr, ptr %39, align 8, !tbaa !21
  %41 = load ptr, ptr %7, align 8, !tbaa !19
  %42 = getelementptr inbounds nuw %"struct.cv::ppf_match_3d::hashnode_i", ptr %41, i32 0, i32 2
  store ptr %40, ptr %42, align 8, !tbaa !21
  br label %52

43:                                               ; preds = %34
  %44 = load ptr, ptr %6, align 8, !tbaa !19
  %45 = getelementptr inbounds nuw %"struct.cv::ppf_match_3d::hashnode_i", ptr %44, i32 0, i32 2
  %46 = load ptr, ptr %45, align 8, !tbaa !21
  %47 = load ptr, ptr %4, align 8, !tbaa !11
  %48 = getelementptr inbounds nuw %"struct.cv::ppf_match_3d::HSHTBL_i", ptr %47, i32 0, i32 1
  %49 = load ptr, ptr %48, align 8, !tbaa !13
  %50 = load i64, ptr %8, align 8, !tbaa !7
  %51 = getelementptr inbounds nuw ptr, ptr %49, i64 %50
  store ptr %46, ptr %51, align 8, !tbaa !19
  br label %52

52:                                               ; preds = %43, %37
  %53 = load ptr, ptr %6, align 8, !tbaa !19
  call void @free(ptr noundef %53) #3
  store i32 0, ptr %3, align 4
  store i32 1, ptr %9, align 4
  br label %60

54:                                               ; preds = %28
  %55 = load ptr, ptr %6, align 8, !tbaa !19
  store ptr %55, ptr %7, align 8, !tbaa !19
  %56 = load ptr, ptr %6, align 8, !tbaa !19
  %57 = getelementptr inbounds nuw %"struct.cv::ppf_match_3d::hashnode_i", ptr %56, i32 0, i32 2
  %58 = load ptr, ptr %57, align 8, !tbaa !21
  store ptr %58, ptr %6, align 8, !tbaa !19
  br label %25, !llvm.loop !30

59:                                               ; preds = %25
  store i32 -1, ptr %3, align 4
  store i32 1, ptr %9, align 4
  br label %60

60:                                               ; preds = %59, %52
  call void @llvm.lifetime.end.p0(i64 8, ptr %8) #3
  call void @llvm.lifetime.end.p0(i64 8, ptr %7) #3
  call void @llvm.lifetime.end.p0(i64 8, ptr %6) #3
  %61 = load i32, ptr %3, align 4
  ret i32 %61
}