; Function Attrs: mustprogress uwtable
define hidden noundef range(i32 -1, 1) i32 @_ZN2cv12ppf_match_3d15hashtableRemoveEPNS0_8HSHTBL_iEj(ptr noundef readonly captures(none) %0, i32 noundef %1) local_unnamed_addr #10 {
  %3 = getelementptr inbounds nuw i8, ptr %0, i64 16
  %4 = load ptr, ptr %3, align 8, !tbaa !12
  %5 = tail call noundef i64 %4(i32 noundef %1)
  %6 = load i64, ptr %0, align 8, !tbaa !11
  %7 = urem i64 %5, %6
  %8 = getelementptr inbounds nuw i8, ptr %0, i64 8
  %9 = load ptr, ptr %8, align 8, !tbaa !3
  %10 = getelementptr inbounds nuw ptr, ptr %9, i64 %7
  %.01822 = load ptr, ptr %10, align 8, !tbaa !13
  %.not23 = icmp eq ptr %.01822, null
  br i1 %.not23, label %.loopexit, label %.lr.ph.preheader

.lr.ph.preheader:                                 ; preds = %2
  %11 = load i32, ptr %.01822, align 8, !tbaa !21
  %12 = icmp eq i32 %11, %1
  br i1 %12, label %.lr.ph._crit_edge, label %.lr.ph33

.lr.ph:                                           ; preds = %.lr.ph33
  %13 = load i32, ptr %.018, align 8, !tbaa !21
  %14 = icmp eq i32 %13, %1
  br i1 %14, label %.lr.ph._crit_edge, label %.lr.ph33, !llvm.loop !25

.lr.ph._crit_edge:                                ; preds = %.lr.ph, %.lr.ph.preheader
  %.01825.lcssa = phi ptr [ %.01822, %.lr.ph.preheader ], [ %.018, %.lr.ph ]
  %.01724.lcssa = phi ptr [ null, %.lr.ph.preheader ], [ %.0182532, %.lr.ph ]
  %.not19 = icmp eq ptr %.01724.lcssa, null
  %15 = getelementptr inbounds nuw i8, ptr %.01825.lcssa, i64 16
  %16 = load ptr, ptr %15, align 8, !tbaa !15
  br i1 %.not19, label %19, label %17

17:                                               ; preds = %.lr.ph._crit_edge
  %18 = getelementptr inbounds nuw i8, ptr %.01724.lcssa, i64 16
  store ptr %16, ptr %18, align 8, !tbaa !15
  br label %20

19:                                               ; preds = %.lr.ph._crit_edge
  store ptr %16, ptr %10, align 8, !tbaa !13
  br label %20

20:                                               ; preds = %19, %17
  tail call void @free(ptr noundef nonnull %.01825.lcssa) #19
  br label %.loopexit

.lr.ph33:                                         ; preds = %.lr.ph.preheader, %.lr.ph
  %.0182532 = phi ptr [ %.018, %.lr.ph ], [ %.01822, %.lr.ph.preheader ]
  %21 = getelementptr inbounds nuw i8, ptr %.0182532, i64 16
  %.018 = load ptr, ptr %21, align 8, !tbaa !13
  %.not = icmp eq ptr %.018, null
  br i1 %.not, label %.loopexit, label %.lr.ph, !llvm.loop !25

.loopexit:                                        ; preds = %.lr.ph33, %2, %20
  %.0 = phi i32 [ 0, %20 ], [ -1, %2 ], [ -1, %.lr.ph33 ]
  ret i32 %.0
}